(dp0
S'Vikramjeet Malik'
p1
S'3'
p2
sS'Yusuf Pathan'
p3
S'2'
p4
sS'Rishi Dhawan'
p5
S'4'
p6
sS'David Wiese'
p7
g6
sS'Colin Munro'
p8
S'6'
p9
sS'Padmanabhan Prasanth'
p10
g2
sS'Quinton de Kock'
p11
g4
sS'Gurkeerat Singh Mann'
p12
g6
sS'Laxmi Shukla'
p13
S'0'
p14
sS'Yogesh Takawale'
p15
g6
sS'James Faulkner'
p16
g14
sS'Chris Morris'
p17
g6
sS'Ashok Dinda'
p18
S'7'
p19
sS'Abhishek Nayar'
p20
g14
sS'Virat Kohli'
p21
S'1'
p22
sS'Ankush Bains'
p23
S'9'
p24
sS'Manish Pandey'
p25
g4
sS'Murali Vijay'
p26
g4
sS'Mitchell Starc'
p27
g2
sS'Dinesh Salunkhe'
p28
g19
sS'Mandeep Singh'
p29
g9
sS'Parvez Rasool'
p30
g24
sS'Ryan ten Doeschate'
p31
S'8'
p32
sS'Axar Patel'
p33
g24
sS'Yuzvendra Chahal'
p34
g19
sS'Ravindra Jadeja'
p35
g9
sS'KC Cariappa'
p36
g19
sS'Marcus Stoinis'
p37
g24
sS'Karn Sharma'
p38
g6
sS'Kieron Pollard'
p39
g32
sS'Iqbal Abdulla'
p40
g2
sS'Harshal Patel'
p41
g2
sS'Glenn Maxwell'
p42
g9
sS'Baba Aparajith'
p43
g24
sS'Shivam Sharma'
p44
g19
sS'SN Khan'
p45
g2
sS'Akshay Wakhare'
p46
g19
sS'Matt Henry'
p47
g2
sS'Jean Paul Duminy'
p48
g32
sS'Kedar Jadhav'
p49
g14
sS'Manvinder Bisla'
p50
g14
sS'Pardeep Sahu'
p51
g2
sS'Amit Mishra'
p52
g6
sS'Mitchell Johnson'
p53
g2
sS'George Bailey'
p54
g9
sS'Sanju Samson'
p55
g9
sS'Rohit Sharma'
p56
g22
sS'Travis Head'
p57
g6
sS'Jayant Yadav'
p58
g2
sS'Bipul Sharma'
p59
g6
sS'Suresh Raina'
p60
g32
sS'Tim Southee'
p61
g24
sS'Alex Hales'
p62
g4
sS'S Badrinath'
p63
g9
sS'MS Dhoni'
p64
S'5'
p65
sS'Faf du Plessis'
p66
g4
sS'James Neesham'
p67
g6
sS'Samuel Badree'
p68
g2
sS'Rahul Tewatia'
p69
g19
sS'Jagadeesha Suchith'
p70
g19
sS'Rajat Bhatia'
p71
g14
sS'Shahbaz Nadeem'
p72
g2
sS'Hardik Pandya'
p73
g14
sS'Irfan Pathan'
p74
g9
sS'Corey Anderson'
p75
g14
sS'Suryakumar Yadav'
p76
g6
sS'Hanuma Vihari'
p77
g14
sS'LMP Simmons'
p78
g32
sS'Ankit Sharma'
p79
g2
sS'Yuvraj Singh'
p80
g4
sS'Andrew Tye'
p81
g19
sS'Imran Tahir'
p82
g19
sS'Marchant De Lange'
p83
g19
sS'Harbhajan Singh'
p84
g14
sS'Siddarth Kaul'
p85
g19
sS'Stuart Binny'
p86
g14
sS'Albie Morkel'
p87
g4
sS'Saurabh Tiwary'
p88
g9
sS'Karanveer Singh'
p89
g19
sS'Shane Watson'
p90
g65
sS'Shakib Al Hasan'
p91
g4
sS'Shreyas Iyer'
p92
g6
sS'Ronit More'
p93
g19
sS'Sandeep Warrier'
p94
g19
sS'Ashish Reddy'
p95
g24
sS'Eklavya Dwivedi'
p96
g6
sS'Pratyush Singh'
p97
g19
sS'Chris Lynn'
p98
g9
sS'Vinay Kumar'
p99
g24
sS'Bhuvneshwar Kumar'
p100
g2
sS'Azhar Mahmood'
p101
g4
sS'Kuldeep Yadav'
p102
g19
sS'Nitesh Rana'
p103
g24
sS'Jaydev Unadkat'
p104
g19
sS'Lasith Malinga'
p105
g24
sS'Mohit Sharma'
p106
g19
sS'Ricky Bhui'
p107
g2
sS'David Miller'
p108
g65
sS'Ashish Nehra'
p109
g19
sS'Steven Smith'
p110
g9
sS'Sandeep Sharma'
p111
g19
sS'Manoj Tiwary'
p112
g9
sS'Pawan Negi'
p113
g24
sS'Shreyas Gopal'
p114
g19
sS'Dale Steyn'
p115
g2
sS'Shaun Marsh'
p116
g65
sS'Mitchell McCleanghan'
p117
g19
sS'Eoin Morgan'
p118
g65
sS'Jalaj Saxena'
p119
g6
sS'Ben Hilfeanus'
p120
g2
sS'Pravin Tambe'
p121
g19
sS'Shikhar Dhawan'
p122
g65
sS'Sheldon Jackson'
p123
g24
sS'Naman Ojha'
p124
g9
sS'Ben Cutting'
p125
g24
sS'AN Ahmed'
p126
g2
sS'Domnic Muthuswami'
p127
g19
sS'Mithun Manhas'
p128
g14
sS'Gautam Gambhir'
p129
g32
sS'Sumit Narwal'
p130
g2
sS'Chris Gayle'
p131
g22
sS'Andre Russell'
p132
g9
sS'Virender Sehwag'
p133
g4
sS'Pat Cummins'
p134
g19
sS'Trent Boult'
p135
g19
sS'Nathan Coulter Nile'
p136
g2
sS'Aditya Tare'
p137
g14
sS'AB de Villiers'
p138
g65
sS'Kane Williamson'
p139
g9
sS'Parthiv Patel'
p140
g4
sS'Rusty Theron'
p141
g2
sS'Vijay Zol'
p142
g2
sS'Deepak Hooda'
p143
g24
sS'Aaron Finch'
p144
g65
sS'Pawan Suyal'
p145
g19
sS'Karun Nair'
p146
g14
sS'PP Ojha'
p147
g19
sS'Ambati Rayudu'
p148
g4
sS'Kyle Abbott'
p149
g2
sS'Barinder Sran'
p150
g19
sS'Srikar Bharat'
p151
g24
sS'Dinesh Karthik'
p152
g4
sS'Mayank Agarwal'
p153
g14
sS'Dhawal Kulkarni'
p154
g2
sS'Johan Botha'
p155
g9
sS'Gurinder Sandhu'
p156
g19
sS'Sagar Trivedi'
p157
g19
sS'Nic Maddinson'
p158
g14
sS'Angelo Mathews'
p159
g9
sS'Sreenath Aravind'
p160
g19
sS'Darren Sammy'
p161
g9
sS'Dishant Yagnik'
p162
g24
sS'Brendon McCullum'
p163
g22
sS'Kane Richardson'
p164
g2
sS'Vaibhav Rawal'
p165
g19
sS'Anureet Singh'
p166
g19
sS'Ishant Sharma'
p167
g19
sS'Robin Uthappa'
p168
g65
sS'Ravi Bopara'
p169
g32
sS'Morne Morkel'
p170
g2
sS'Sean Abbott'
p171
g2
sS'David Warner'
p172
g22
sS'Rahul Sharma'
p173
g2
sS'Chama Milind'
p174
g19
sS'Abhimanyu Mithun'
p175
g19
sS'Mohammed Shami'
p176
g19
sS'Michael Hussey'
p177
g65
sS'KL Rahul'
p178
g14
sS'Chidhambaram Gautam'
p179
g24
sS'Dwayne Bravo'
p180
g32
sS'Varun Aaron'
p181
g19
sS'Moises Henriques'
p182
g9
sS'Adam Milne'
p183
g19
sS'Kevin Pietersen'
p184
g65
sS'Wriddhiman Saha'
p185
g9
sS'Sunil Narine'
p186
g24
sS'Umesh Yadav'
p187
g19
sS'Siddhesh Lad'
p188
g2
sS'Rilee Rossouw'
p189
g9
sS'Manan Vohra'
p190
g14
sS'Unmukt Chand'
p191
g14
sS'Ajinkya Rahane'
p192
g4
sS'Veer Pratap Singh'
p193
g19
sS'Brad Hogg'
p194
g24
sS'Thisara Perera'
p195
g9
sS'Jasprit Bumrah'
p196
g19
sS'Dwayne Smith'
p197
g22
sS'Beuran Hendricks'
p198
g19
sS'Ishwar Pandey'
p199
g19
sS'Nikhil Naik'
p200
g24
sS'Ravichandran Ashwin'
p201
g24
sS'Aden Blizzard'
p202
g9
sS'Aditya Garhwal'
p203
g19
sS'Shardul Thakur'
p204
g19
sS'Parvinder Awana'
p205
g19
sS'Jose Hazeelwood'
p206
g19
sS'Piyush Chawla'
p207
g14
sS'Praveen Kumar'
p208
g6
sS'Zaheer Khan'
p209
g2
s.