(dp0
S'Vikramjeet Malik'
p1
S'9'
p2
sS'Yusuf Pathan'
p3
S'8'
p4
sS'Rishi Dhawan'
p5
S'2'
p6
sS'David Wiese'
p7
S'7'
p8
sS'Colin Munro'
p9
S'6'
p10
sS'Padmanabhan Prasanth'
p11
g2
sS'Quinton de Kock'
p12
S'1'
p13
sS'Gurkeerat Singh Mann'
p14
g13
sS'Laxmi Shukla'
p15
g2
sS'Yogesh Takawale'
p16
g13
sS'James Faulkner'
p17
S'0'
p18
sS'Chris Morris'
p19
g18
sS'Ashok Dinda'
p20
g4
sS'Abhishek Nayar'
p21
g10
sS'Virat Kohli'
p22
g10
sS'Ankush Bains'
p23
g13
sS'Manish Pandey'
p24
g13
sS'Murali Vijay'
p25
g13
sS'Lendl Simmons'
p26
g10
sS'Mitchell Starc'
p27
g8
sS'Dinesh Salunkhe'
p28
g13
sS'Mandeep Singh'
p29
g13
sS'Parvez Rasool'
p30
g2
sS'Ryan ten Doeschate'
p31
g8
sS'Axar Patel'
p32
g6
sS'Yuzvendra Chahal'
p33
g6
sS'Ravindra Jadeja'
p34
g18
sS'KC Cariappa'
p35
g13
sS'Marcus Stoinis'
p36
g10
sS'Karn Sharma'
p37
g6
sS'Kieron Pollard'
p38
S'4'
p39
sS'Iqbal Abdulla'
p40
g6
sS'Harshal Patel'
p41
g2
sS'Glenn Maxwell'
p42
g6
sS'Baba Aparajith'
p43
g13
sS'Shivam Sharma'
p44
g13
sS'SN Khan'
p45
g13
sS'Akshay Wakhare'
p46
g10
sS'Matt Henry'
p47
g2
sS'Jean Paul Duminy'
p48
g6
sS'Kedar Jadhav'
p49
g13
sS'Manvinder Bisla'
p50
g13
sS'Pardeep Sahu'
p51
g13
sS'Amit Mishra'
p52
g39
sS'Mitchell Johnson'
p53
g8
sS'George Bailey'
p54
g13
sS'Sanju Samson'
p55
g13
sS'Rohit Sharma'
p56
g10
sS'Travis Head'
p57
g13
sS'Jayant Yadav'
p58
g10
sS'Bipul Sharma'
p59
g2
sS'Suresh Raina'
p60
g6
sS'Tim Southee'
p61
g18
sS'Alex Hales'
p62
g13
sS'S Badrinath'
p63
g13
sS'MS Dhoni'
p64
g13
sS'Faf du Plessis'
p65
g2
sS'James Neesham'
p66
g2
sS'Samuel Badree'
p67
g18
sS'Rahul Tewatia'
p68
g13
sS'Jagadeesha Suchith'
p69
g10
sS'Rajat Bhatia'
p70
g4
sS'Shahbaz Nadeem'
p71
g8
sS'Hardik Pandya'
p72
g2
sS'Irfan Pathan'
p73
g39
sS'Corey Anderson'
p74
g10
sS'Suryakumar Yadav'
p75
g13
sS'Hanuma Vihari'
p76
g13
sS'LMP Simmons'
p77
g10
sS'Ankit Sharma'
p78
g2
sS'Yuvraj Singh'
p79
g6
sS'Andrew Tye'
p80
g2
sS'Imran Tahir'
p81
g18
sS'Marchant De Lange'
p82
g2
sS'Harbhajan Singh'
p83
S'3'
p84
sS'Siddarth Kaul'
p85
g2
sS'Stuart Binny'
p86
g2
sS'Albie Morkel'
p87
g84
sS'Saurabh Tiwary'
p88
g13
sS'Karanveer Singh'
p89
g10
sS'Shane Watson'
p90
g39
sS'Shakib Al Hasan'
p91
g84
sS'Shreyas Iyer'
p92
g13
sS'Ronit More'
p93
g13
sS'Nitish Rana'
p94
g13
sS'Sandeep Warrier'
p95
g10
sS'Ashish Reddy'
p96
g2
sS'Eklavya Dwivedi'
p97
g13
sS'Pratyush Singh'
p98
g13
sS'Chris Lynn'
p99
g13
sS'Vinay Kumar'
p100
g18
sS'Bhuvneshwar Kumar'
p101
g4
sS'Azhar Mahmood'
p102
g84
sS'Kuldeep Yadav'
p103
g10
sS'Jaydev Unadkat'
p104
g6
sS'Lasith Malinga'
p105
g84
sS'Mohit Sharma'
p106
g6
sS'Ricky Bhui'
p107
g13
sS'Aiden Blizzard'
p108
g13
sS'David Miller'
p109
g13
sS'Ashish Nehra'
p110
g18
sS'Steven Smith'
p111
g2
sS'Sandeep Sharma'
p112
g6
sS'Manoj Tiwary'
p113
g10
sS'Pawan Negi'
p114
g2
sS'Shreyas Gopal'
p115
g13
sS'Dale Steyn'
p116
g39
sS'Shaun Marsh'
p117
g13
sS'Mitchell McCleanghan'
p118
g4
sS'Eoin Morgan'
p119
g13
sS'Jalaj Saxena'
p120
g10
sS'Pravin Tambe'
p121
g2
sS'Shikhar Dhawan'
p122
g13
sS'Sheldon Jackson'
p123
g13
sS'Naman Ojha'
p124
g13
sS'Ben Cutting'
p125
g2
sS'AN Ahmed'
p126
g2
sS'Domnic Muthuswami'
p127
g10
sS'Mithun Manhas'
p128
g13
sS'Gautam Gambhir'
p129
g13
sS'Sumit Narwal'
p130
g10
sS'Chris Gayle'
p131
g8
sS'Andre Russell'
p132
g39
sS'Virender Sehwag'
p133
g10
sS'Pat Cummins'
p134
g2
sS'Trent Boult'
p135
g2
sS'Nathan Coulter Nile'
p136
g6
sS'Aditya Tare'
p137
g13
sS'AB de Villiers'
p138
g13
sS'Kane Williamson'
p139
g10
sS'Parthiv Patel'
p140
g13
sS'Rusty Theron'
p141
g18
sS'Vijay Zol'
p142
g13
sS'Deepak Hooda'
p143
g10
sS'Aaron Finch'
p144
g13
sS'Pawan Suyal'
p145
g10
sS'Karun Nair'
p146
g13
sS'PP Ojha'
p147
g18
sS'Ambati Rayudu'
p148
g13
sS'Ben Hilfenhaus'
p149
g6
sS'Kyle Abbott'
p150
g8
sS'Barinder Sran'
p151
g10
sS'Srikar Bharat'
p152
g13
sS'Dinesh Karthik'
p153
g13
sS'Mayank Agarwal'
p154
g13
sS'Josh Hazlewood'
p155
g10
sS'Dhawal Kulkarni'
p156
g8
sS'Johan Botha'
p157
g39
sS'Gurinder Sandhu'
p158
g10
sS'Sagar Trivedi'
p159
g13
sS'Nic Maddinson'
p160
g13
sS'Angelo Mathews'
p161
g8
sS'Sreenath Aravind'
p162
g2
sS'Darren Sammy'
p163
g18
sS'Dishant Yagnik'
p164
g13
sS'Brendon McCullum'
p165
g13
sS'Kane Richardson'
p166
g2
sS'Vaibhav Rawal'
p167
g13
sS'Anureet Singh'
p168
g2
sS'Ishant Sharma'
p169
g4
sS'Robin Uthappa'
p170
g13
sS'Ravi Bopara'
p171
g39
sS'Morne Morkel'
p172
g39
sS'Sean Abbott'
p173
g10
sS'David Warner'
p174
g13
sS'Rahul Sharma'
p175
g6
sS'Chama Milind'
p176
g10
sS'Abhimanyu Mithun'
p177
g2
sS'Mohammed Shami'
p178
g2
sS'Michael Hussey'
p179
g13
sS'KL Rahul'
p180
g13
sS'Chidhambaram Gautam'
p181
g13
sS'Dwayne Bravo'
p182
S'5'
p183
sS'Varun Aaron'
p184
g2
sS'Moises Henriques'
p185
g4
sS'Adam Milne'
p186
g2
sS'Kevin Pietersen'
p187
g10
sS'Wriddhiman Saha'
p188
g13
sS'Sunil Narine'
p189
g84
sS'Umesh Yadav'
p190
g8
sS'Siddhesh Lad'
p191
g13
sS'Rilee Rossouw'
p192
g13
sS'Manan Vohra'
p193
g13
sS'Unmukt Chand'
p194
g13
sS'Ajinkya Rahane'
p195
g13
sS'Veer Pratap Singh'
p196
g10
sS'Brad Hogg'
p197
g18
sS'Thisara Perera'
p198
g18
sS'Jasprit Bumrah'
p199
g8
sS'Dwayne Smith'
p200
g8
sS'Beuran Hendricks'
p201
g2
sS'Ishwar Pandey'
p202
g2
sS'Nikhil Naik'
p203
g13
sS'Ravichandran Ashwin'
p204
g84
sS'Aditya Garhwal'
p205
g13
sS'Shardul Thakur'
p206
g10
sS'Parvinder Awana'
p207
g6
sS'Piyush Chawla'
p208
g39
sS'Praveen Kumar'
p209
g39
sS'Zaheer Khan'
p210
g18
s.